; Function Attrs: mustprogress uwtable
define void @_Z21_gmx_sel_init_keywordP19gmx_ana_selmethod_tSt10unique_ptrINSt7__cxx114listIN3gmx20SelectionParserValueESaIS5_EEESt14default_deleteIS7_EEPKcPv(ptr dead_on_unwind noalias writable sret(%"class.std::shared_ptr.0") align 8 %0, ptr noundef readonly captures(none) %1, ptr noundef captures(none) %2, ptr noundef %3, ptr noundef %4) local_unnamed_addr #0 personality ptr @__gxx_personality_v0 {
  %6 = alloca %"class.std::unique_ptr", align 8
  %7 = load i64, ptr %2, align 8, !tbaa !42
  store i64 %7, ptr %6, align 8, !tbaa !42
  store ptr null, ptr %2, align 8, !tbaa !42
  invoke fastcc void @_ZL21init_keyword_internalP19gmx_ana_selmethod_tN3gmx24SelectionStringMatchTypeESt10unique_ptrINSt7__cxx114listINS1_20SelectionParserValueESaIS6_EEESt14default_deleteIS8_EEPKcPv(ptr dead_on_unwind noalias writable align 8 %0, ptr noundef %1, i32 noundef 0, ptr noundef %6, ptr noundef %3, ptr noundef %4)
          to label %8 unwind label %10

8:                                                ; preds = %5
  %9 = load ptr, ptr %6, align 8, !tbaa !42
  %.not.i = icmp eq ptr %9, null
  br i1 %.not.i, label %_ZNSt10unique_ptrINSt7__cxx114listIN3gmx20SelectionParserValueESaIS3_EEESt14default_deleteIS5_EED2Ev.exit, label %_ZNKSt14default_deleteINSt7__cxx114listIN3gmx20SelectionParserValueESaIS3_EEEEclEPS5_.exit.i

_ZNKSt14default_deleteINSt7__cxx114listIN3gmx20SelectionParserValueESaIS3_EEEEclEPS5_.exit.i: ; preds = %8
  tail call void @_ZNSt7__cxx1110_List_baseIN3gmx20SelectionParserValueESaIS2_EE8_M_clearEv(ptr noundef nonnull align 8 dereferenceable(24) %9) #24
  tail call void @_ZdlPvm(ptr noundef nonnull %9, i64 noundef 24) #25
  br label %_ZNSt10unique_ptrINSt7__cxx114listIN3gmx20SelectionParserValueESaIS3_EEESt14default_deleteIS5_EED2Ev.exit

_ZNSt10unique_ptrINSt7__cxx114listIN3gmx20SelectionParserValueESaIS3_EEESt14default_deleteIS5_EED2Ev.exit: ; preds = %8, %_ZNKSt14default_deleteINSt7__cxx114listIN3gmx20SelectionParserValueESaIS3_EEEEclEPS5_.exit.i
  ret void

10:                                               ; preds = %5
  %11 = landingpad { ptr, i32 }
          cleanup
  call void @_ZNSt10unique_ptrINSt7__cxx114listIN3gmx20SelectionParserValueESaIS3_EEESt14default_deleteIS5_EED2Ev(ptr noundef nonnull align 8 dereferenceable(8) %6) #24
  resume { ptr, i32 } %11
}